target datalayout = "e-m:e-p270:32:32-p271:32:32-p272:64:64-i64:64-i128:128-f80:128-n8:16:32:64-S128"
target triple = "x86_64-pc-linux-gnu"

%struct.Pdr_Man_t_ = type { ptr, ptr, ptr, ptr, ptr, ptr, ptr, ptr, %struct.Vec_Ptr_t_, ptr, i32, i32, ptr, ptr, ptr, ptr, ptr, ptr, i32, i32, ptr, ptr, ptr, i32, i32, ptr, ptr, ptr, ptr, ptr, ptr, ptr, ptr, ptr, ptr, ptr, ptr, ptr, ptr, i32, i32, i32, i32, i32, i32, i32, i32, i32, i32, i32, i32, i32, i32, i32, i32, i32, i64, i64, i64, i64, i64, i64, i64, i64, i64, i64, i64, i64 }
%struct.Vec_Ptr_t_ = type { i32, i32, ptr }
%struct.Vec_Vec_t_ = type { i32, i32, ptr }
%struct.Vec_Int_t_ = type { i32, i32, ptr }
%struct.Pdr_Set_t_ = type { i64, i32, i32, i32, [0 x i32] }
%struct.Aig_Man_t_ = type { ptr, ptr, ptr, ptr, ptr, ptr, ptr, %struct.Aig_Obj_t_, i32, i32, i32, i32, i32, i32, [7 x i32], i32, ptr, i32, ptr, i32, ptr, i32, i32, i32, ptr, i32, i32, i32, i32, i32, ptr, ptr, i32, ptr, ptr, i32, ptr, ptr, i32, i32, i32, ptr, ptr, ptr, ptr, ptr, ptr, ptr, ptr, ptr, ptr, ptr, ptr, ptr, ptr, i32, ptr, ptr, ptr, ptr, i32, i64, i64, i64, ptr, ptr }
%struct.Aig_Obj_t_ = type { %union.anon, ptr, ptr, i64, i32, i32, %union.anon.0 }
%union.anon = type { ptr }
%union.anon.0 = type { ptr }

; Function Attrs: nounwind uwtable
define internal ptr @Vec_IntAlloc(i32 noundef %0) #0 {
  %2 = alloca i32, align 4
  %3 = alloca ptr, align 8
  store i32 %0, ptr %2, align 4
  %4 = call noalias ptr @malloc(i64 noundef 16) #11
  store ptr %4, ptr %3, align 8
  %5 = load i32, ptr %2, align 4
  %6 = icmp sgt i32 %5, 0
  br i1 %6, label %7, label %11

7:                                                ; preds = %1
  %8 = load i32, ptr %2, align 4
  %9 = icmp slt i32 %8, 16
  br i1 %9, label %10, label %11

10:                                               ; preds = %7
  store i32 16, ptr %2, align 4
  br label %11

11:                                               ; preds = %10, %7, %1
  %12 = load ptr, ptr %3, align 8
  %13 = getelementptr inbounds %struct.Vec_Int_t_, ptr %12, i32 0, i32 1
  store i32 0, ptr %13, align 4
  %14 = load i32, ptr %2, align 4
  %15 = load ptr, ptr %3, align 8
  %16 = getelementptr inbounds %struct.Vec_Int_t_, ptr %15, i32 0, i32 0
  store i32 %14, ptr %16, align 8
  %17 = load ptr, ptr %3, align 8
  %18 = getelementptr inbounds %struct.Vec_Int_t_, ptr %17, i32 0, i32 0
  %19 = load i32, ptr %18, align 8
  %20 = icmp ne i32 %19, 0
  br i1 %20, label %21, label %28

21:                                               ; preds = %11
  %22 = load ptr, ptr %3, align 8
  %23 = getelementptr inbounds %struct.Vec_Int_t_, ptr %22, i32 0, i32 0
  %24 = load i32, ptr %23, align 8
  %25 = sext i32 %24 to i64
  %26 = mul i64 4, %25
  %27 = call noalias ptr @malloc(i64 noundef %26) #11
  br label %29

28:                                               ; preds = %11
  br label %29

29:                                               ; preds = %28, %21
  %30 = phi ptr [ %27, %21 ], [ null, %28 ]
  %31 = load ptr, ptr %3, align 8
  %32 = getelementptr inbounds %struct.Vec_Int_t_, ptr %31, i32 0, i32 2
  store ptr %30, ptr %32, align 8
  %33 = load ptr, ptr %3, align 8
  ret ptr %33
}

; Function Attrs: nounwind uwtable
define internal i32 @Vec_IntAddToEntry(ptr noundef %0, i32 noundef %1, i32 noundef %2) #0 {
  %4 = alloca ptr, align 8
  %5 = alloca i32, align 4
  %6 = alloca i32, align 4
  store ptr %0, ptr %4, align 8
  store i32 %1, ptr %5, align 4
  store i32 %2, ptr %6, align 4
  %7 = load i32, ptr %6, align 4
  %8 = load ptr, ptr %4, align 8
  %9 = getelementptr inbounds %struct.Vec_Int_t_, ptr %8, i32 0, i32 2
  %10 = load ptr, ptr %9, align 8
  %11 = load i32, ptr %5, align 4
  %12 = sext i32 %11 to i64
  %13 = getelementptr inbounds i32, ptr %10, i64 %12
  %14 = load i32, ptr %13, align 4
  %15 = add nsw i32 %14, %7
  store i32 %15, ptr %13, align 4
  ret i32 %15
}

; Function Attrs: nounwind uwtable
define internal ptr @Vec_PtrEntry(ptr noundef %0, i32 noundef %1) #0 {
  %3 = alloca ptr, align 8
  %4 = alloca i32, align 4
  store ptr %0, ptr %3, align 8
  store i32 %1, ptr %4, align 4
  %5 = load ptr, ptr %3, align 8
  %6 = getelementptr inbounds %struct.Vec_Ptr_t_, ptr %5, i32 0, i32 2
  %7 = load ptr, ptr %6, align 8
  %8 = load i32, ptr %4, align 4
  %9 = sext i32 %8 to i64
  %10 = getelementptr inbounds ptr, ptr %7, i64 %9
  %11 = load ptr, ptr %10, align 8
  ret ptr %11
}

; Function Attrs: nounwind uwtable
define internal ptr @Vec_IntStart(i32 noundef %0) #0 {
  %2 = alloca i32, align 4
  %3 = alloca ptr, align 8
  store i32 %0, ptr %2, align 4
  %4 = load i32, ptr %2, align 4
  %5 = call ptr @Vec_IntAlloc(i32 noundef %4)
  store ptr %5, ptr %3, align 8
  %6 = load i32, ptr %2, align 4
  %7 = load ptr, ptr %3, align 8
  %8 = getelementptr inbounds %struct.Vec_Int_t_, ptr %7, i32 0, i32 1
  store i32 %6, ptr %8, align 4
  %9 = load ptr, ptr %3, align 8
  %10 = getelementptr inbounds %struct.Vec_Int_t_, ptr %9, i32 0, i32 2
  %11 = load ptr, ptr %10, align 8
  %12 = icmp ne ptr %11, null
  br i1 %12, label %13, label %20

13:                                               ; preds = %1
  %14 = load ptr, ptr %3, align 8
  %15 = getelementptr inbounds %struct.Vec_Int_t_, ptr %14, i32 0, i32 2
  %16 = load ptr, ptr %15, align 8
  %17 = load i32, ptr %2, align 4
  %18 = sext i32 %17 to i64
  %19 = mul i64 4, %18
  call void @llvm.memset.p0.i64(ptr align 4 %16, i8 0, i64 %19, i1 false)
  br label %20

20:                                               ; preds = %13, %1
  %21 = load ptr, ptr %3, align 8
  ret ptr %21
}

; Function Attrs: nounwind uwtable
define internal i32 @Aig_ManRegNum(ptr noundef %0) #0 {
  %2 = alloca ptr, align 8
  store ptr %0, ptr %2, align 8
  %3 = load ptr, ptr %2, align 8
  %4 = getelementptr inbounds %struct.Aig_Man_t_, ptr %3, i32 0, i32 8
  %5 = load i32, ptr %4, align 8
  ret i32 %5
}

; Function Attrs: nounwind uwtable
define internal ptr @Vec_VecEntry(ptr noundef %0, i32 noundef %1) #0 {
  %3 = alloca ptr, align 8
  %4 = alloca i32, align 4
  store ptr %0, ptr %3, align 8
  store i32 %1, ptr %4, align 4
  %5 = load ptr, ptr %3, align 8
  %6 = getelementptr inbounds %struct.Vec_Vec_t_, ptr %5, i32 0, i32 2
  %7 = load ptr, ptr %6, align 8
  %8 = load i32, ptr %4, align 4
  %9 = sext i32 %8 to i64
  %10 = getelementptr inbounds ptr, ptr %7, i64 %9
  %11 = load ptr, ptr %10, align 8
  ret ptr %11
}

; Function Attrs: nounwind uwtable
define internal i32 @Vec_PtrSize(ptr noundef %0) #0 {
  %2 = alloca ptr, align 8
  store ptr %0, ptr %2, align 8
  %3 = load ptr, ptr %2, align 8
  %4 = getelementptr inbounds %struct.Vec_Ptr_t_, ptr %3, i32 0, i32 1
  %5 = load i32, ptr %4, align 4
  ret i32 %5
}

; Function Attrs: nounwind uwtable
define internal void @Vec_PtrFree(ptr noundef %0) #0 {
  %2 = alloca ptr, align 8
  store ptr %0, ptr %2, align 8
  %3 = load ptr, ptr %2, align 8
  %4 = getelementptr inbounds %struct.Vec_Ptr_t_, ptr %3, i32 0, i32 2
  %5 = load ptr, ptr %4, align 8
  %6 = icmp ne ptr %5, null
  br i1 %6, label %7, label %13

7:                                                ; preds = %1
  %8 = load ptr, ptr %2, align 8
  %9 = getelementptr inbounds %struct.Vec_Ptr_t_, ptr %8, i32 0, i32 2
  %10 = load ptr, ptr %9, align 8
  call void @free(ptr noundef %10) #10
  %11 = load ptr, ptr %2, align 8
  %12 = getelementptr inbounds %struct.Vec_Ptr_t_, ptr %11, i32 0, i32 2
  store ptr null, ptr %12, align 8
  br label %14

13:                                               ; preds = %1
  br label %14

14:                                               ; preds = %13, %7
  %15 = load ptr, ptr %2, align 8
  %16 = icmp ne ptr %15, null
  br i1 %16, label %17, label %19

17:                                               ; preds = %14
  %18 = load ptr, ptr %2, align 8
  call void @free(ptr noundef %18) #10
  store ptr null, ptr %2, align 8
  br label %20

19:                                               ; preds = %14
  br label %20

20:                                               ; preds = %19, %17
  ret void
}

; Function Attrs: nounwind uwtable
define ptr @Pdr_ManCountFlops(ptr noundef %0, ptr noundef %1) #0 {
  %3 = alloca ptr, align 8
  %4 = alloca ptr, align 8
  %5 = alloca ptr, align 8
  %6 = alloca ptr, align 8
  %7 = alloca i32, align 4
  %8 = alloca i32, align 4
  store ptr %0, ptr %3, align 8
  store ptr %1, ptr %4, align 8
  %9 = load ptr, ptr %3, align 8
  %10 = getelementptr inbounds %struct.Pdr_Man_t_, ptr %9, i32 0, i32 1
  %11 = load ptr, ptr %10, align 8
  %12 = call i32 @Aig_ManRegNum(ptr noundef %11)
  %13 = call ptr @Vec_IntStart(i32 noundef %12)
  store ptr %13, ptr %5, align 8
  store i32 0, ptr %7, align 4
  br label %14

14:                                               ; preds = %52, %2
  %15 = load i32, ptr %7, align 4
  %16 = load ptr, ptr %4, align 8
  %17 = call i32 @Vec_PtrSize(ptr noundef %16)
  %18 = icmp slt i32 %15, %17
  br i1 %18, label %19, label %23

19:                                               ; preds = %14
  %20 = load ptr, ptr %4, align 8
  %21 = load i32, ptr %7, align 4
  %22 = call ptr @Vec_PtrEntry(ptr noundef %20, i32 noundef %21)
  store ptr %22, ptr %6, align 8
  br label %23

23:                                               ; preds = %19, %14
  %24 = phi i1 [ false, %14 ], [ true, %19 ]
  br i1 %24, label %25, label %55

25:                                               ; preds = %23
  %26 = load ptr, ptr %6, align 8
  %27 = getelementptr inbounds %struct.Pdr_Set_t_, ptr %26, i32 0, i32 1
  %28 = load i32, ptr %27, align 8
  %29 = icmp eq i32 %28, -1
  br i1 %29, label %30, label %31

30:                                               ; preds = %25
  br label %52

31:                                               ; preds = %25
  store i32 0, ptr %8, align 4
  br label %32

32:                                               ; preds = %48, %31
  %33 = load i32, ptr %8, align 4
  %34 = load ptr, ptr %6, align 8
  %35 = getelementptr inbounds %struct.Pdr_Set_t_, ptr %34, i32 0, i32 3
  %36 = load i32, ptr %35, align 8
  %37 = icmp slt i32 %33, %36
  br i1 %37, label %38, label %51

38:                                               ; preds = %32
  %39 = load ptr, ptr %5, align 8
  %40 = load ptr, ptr %6, align 8
  %41 = getelementptr inbounds %struct.Pdr_Set_t_, ptr %40, i32 0, i32 4
  %42 = load i32, ptr %8, align 4
  %43 = sext i32 %42 to i64
  %44 = getelementptr inbounds [0 x i32], ptr %41, i64 0, i64 %43
  %45 = load i32, ptr %44, align 4
  %46 = ashr i32 %45, 1
  %47 = call i32 @Vec_IntAddToEntry(ptr noundef %39, i32 noundef %46, i32 noundef 1)
  br label %48

48:                                               ; preds = %38
  %49 = load i32, ptr %8, align 4
  %50 = add nsw i32 %49, 1
  store i32 %50, ptr %8, align 4
  br label %32, !llvm.loop !10

51:                                               ; preds = %32
  br label %52

52:                                               ; preds = %51, %30
  %53 = load i32, ptr %7, align 4
  %54 = add nsw i32 %53, 1
  store i32 %54, ptr %7, align 4
  br label %14, !llvm.loop !11

55:                                               ; preds = %23
  %56 = load ptr, ptr %5, align 8
  ret ptr %56
}

; Function Attrs: nounwind uwtable
define i32 @Pdr_ManFindInvariantStart(ptr noundef %0) #0 {
  %2 = alloca i32, align 4
  %3 = alloca ptr, align 8
  %4 = alloca ptr, align 8
  %5 = alloca i32, align 4
  %6 = alloca i32, align 4
  store ptr %0, ptr %3, align 8
  %7 = load ptr, ptr %3, align 8
  %8 = getelementptr inbounds %struct.Pdr_Man_t_, ptr %7, i32 0, i32 13
  %9 = load ptr, ptr %8, align 8
  %10 = call i32 @Vec_PtrSize(ptr noundef %9)
  %11 = sub nsw i32 %10, 1
  store i32 %11, ptr %6, align 4
  store i32 1, ptr %5, align 4
  br label %12

12:                                               ; preds = %32, %1
  %13 = load i32, ptr %5, align 4
  %14 = load i32, ptr %6, align 4
  %15 = add nsw i32 %14, 1
  %16 = icmp slt i32 %13, %15
  br i1 %16, label %17, label %23

17:                                               ; preds = %12
  %18 = load ptr, ptr %3, align 8
  %19 = getelementptr inbounds %struct.Pdr_Man_t_, ptr %18, i32 0, i32 14
  %20 = load ptr, ptr %19, align 8
  %21 = load i32, ptr %5, align 4
  %22 = call ptr @Vec_VecEntry(ptr noundef %20, i32 noundef %21)
  store ptr %22, ptr %4, align 8
  br label %23

23:                                               ; preds = %17, %12
  %24 = phi i1 [ false, %12 ], [ true, %17 ]
  br i1 %24, label %25, label %35

25:                                               ; preds = %23
  %26 = load ptr, ptr %4, align 8
  %27 = call i32 @Vec_PtrSize(ptr noundef %26)
  %28 = icmp eq i32 %27, 0
  br i1 %28, label %29, label %31

29:                                               ; preds = %25
  %30 = load i32, ptr %5, align 4
  store i32 %30, ptr %2, align 4
  br label %37

31:                                               ; preds = %25
  br label %32

32:                                               ; preds = %31
  %33 = load i32, ptr %5, align 4
  %34 = add nsw i32 %33, 1
  store i32 %34, ptr %5, align 4
  br label %12, !llvm.loop !12

35:                                               ; preds = %23
  %36 = load i32, ptr %6, align 4
  store i32 %36, ptr %2, align 4
  br label %37

37:                                               ; preds = %35, %29
  %38 = load i32, ptr %2, align 4
  ret i32 %38
}

; Function Attrs: nounwind uwtable
define ptr @Pdr_ManCountFlopsInv(ptr noundef %0) #0 {
  %2 = alloca ptr, align 8
  %3 = alloca i32, align 4
  %4 = alloca ptr, align 8
  %5 = alloca ptr, align 8
  store ptr %0, ptr %2, align 8
  %6 = load ptr, ptr %2, align 8
  %7 = call i32 @Pdr_ManFindInvariantStart(ptr noundef %6)
  store i32 %7, ptr %3, align 4
  %8 = load ptr, ptr %2, align 8
  %9 = load i32, ptr %3, align 4
  %10 = call ptr @Pdr_ManCollectCubes(ptr noundef %8, i32 noundef %9)
  store ptr %10, ptr %4, align 8
  %11 = load ptr, ptr %2, align 8
  %12 = load ptr, ptr %4, align 8
  %13 = call ptr @Pdr_ManCountFlops(ptr noundef %11, ptr noundef %12)
  store ptr %13, ptr %5, align 8
  %14 = load ptr, ptr %4, align 8
  call void @Vec_PtrFree(ptr noundef %14)
  %15 = load ptr, ptr %5, align 8
  ret ptr %15
}