; Function Attrs: nounwind uwtable
define noalias noundef ptr @Pdr_ManCountFlopsInv(ptr noundef readonly captures(none) %0) local_unnamed_addr #0 {
  %2 = getelementptr inbounds nuw i8, ptr %0, i64 104
  %3 = load ptr, ptr %2, align 8
  %4 = getelementptr i8, ptr %3, i64 4
  %.val10.i = load i32, ptr %4, align 4
  %5 = add nsw i32 %.val10.i, -1
  %6 = icmp sgt i32 %.val10.i, 1
  br i1 %6, label %.lr.ph.i, label %Pdr_ManFindInvariantStart.exit

.lr.ph.i:                                         ; preds = %1
  %7 = getelementptr inbounds nuw i8, ptr %0, i64 112
  %8 = load ptr, ptr %7, align 8
  %9 = getelementptr i8, ptr %8, i64 8
  %.val11.i = load ptr, ptr %9, align 8
  %wide.trip.count.i = zext nneg i32 %.val10.i to i64
  br label %10

10:                                               ; preds = %15, %.lr.ph.i
  %indvars.iv.i = phi i64 [ 1, %.lr.ph.i ], [ %indvars.iv.next.i, %15 ]
  %11 = getelementptr inbounds nuw ptr, ptr %.val11.i, i64 %indvars.iv.i
  %12 = load ptr, ptr %11, align 8
  %13 = getelementptr i8, ptr %12, i64 4
  %.val.i = load i32, ptr %13, align 4
  %14 = icmp eq i32 %.val.i, 0
  br i1 %14, label %.critedge.loopexit.split.loop.exit16.i, label %15

15:                                               ; preds = %10
  %indvars.iv.next.i = add nuw nsw i64 %indvars.iv.i, 1
  %exitcond.not.i = icmp eq i64 %indvars.iv.next.i, %wide.trip.count.i
  br i1 %exitcond.not.i, label %Pdr_ManFindInvariantStart.exit, label %10, !llvm.loop !12

.critedge.loopexit.split.loop.exit16.i:           ; preds = %10
  %16 = trunc nuw nsw i64 %indvars.iv.i to i32
  br label %Pdr_ManFindInvariantStart.exit

Pdr_ManFindInvariantStart.exit:                   ; preds = %15, %1, %.critedge.loopexit.split.loop.exit16.i
  %.0.i = phi i32 [ %5, %1 ], [ %16, %.critedge.loopexit.split.loop.exit16.i ], [ %5, %15 ]
  %17 = tail call ptr @Pdr_ManCollectCubes(ptr noundef %0, i32 noundef %.0.i)
  %18 = getelementptr inbounds nuw i8, ptr %0, i64 8
  %19 = load ptr, ptr %18, align 8
  %20 = getelementptr i8, ptr %19, i64 104
  %.val14.i = load i32, ptr %20, align 8
  %21 = tail call noalias dereferenceable_or_null(16) ptr @malloc(i64 noundef 16) #20
  %22 = add i32 %.val14.i, -1
  %or.cond.i.i.i = icmp ult i32 %22, 15
  %spec.store.select.i.i.i = select i1 %or.cond.i.i.i, i32 16, i32 %.val14.i
  %23 = getelementptr inbounds nuw i8, ptr %21, i64 4
  store i32 %spec.store.select.i.i.i, ptr %21, align 8
  %.not.i.i.i = icmp eq i32 %spec.store.select.i.i.i, 0
  br i1 %.not.i.i.i, label %Vec_IntAlloc.exit.thread.i.i, label %Vec_IntAlloc.exit.i.i

Vec_IntAlloc.exit.thread.i.i:                     ; preds = %Pdr_ManFindInvariantStart.exit
  %24 = getelementptr inbounds nuw i8, ptr %21, i64 8
  store ptr null, ptr %24, align 8
  store i32 %.val14.i, ptr %23, align 4
  br label %Vec_IntStart.exit.i

Vec_IntAlloc.exit.i.i:                            ; preds = %Pdr_ManFindInvariantStart.exit
  %25 = sext i32 %spec.store.select.i.i.i to i64
  %26 = shl nsw i64 %25, 2
  %27 = tail call noalias ptr @malloc(i64 noundef %26) #20
  %28 = getelementptr inbounds nuw i8, ptr %21, i64 8
  store ptr %27, ptr %28, align 8
  store i32 %.val14.i, ptr %23, align 4
  %.not.i.i = icmp eq ptr %27, null
  br i1 %.not.i.i, label %Vec_IntStart.exit.i, label %29

29:                                               ; preds = %Vec_IntAlloc.exit.i.i
  %30 = sext i32 %.val14.i to i64
  %31 = shl nsw i64 %30, 2
  tail call void @llvm.memset.p0.i64(ptr nonnull align 4 %27, i8 0, i64 %31, i1 false)
  br label %Vec_IntStart.exit.i

Vec_IntStart.exit.i:                              ; preds = %29, %Vec_IntAlloc.exit.i.i, %Vec_IntAlloc.exit.thread.i.i
  %.val16.i = phi ptr [ null, %Vec_IntAlloc.exit.thread.i.i ], [ null, %Vec_IntAlloc.exit.i.i ], [ %27, %29 ]
  %32 = getelementptr i8, ptr %17, i64 4
  %.val18.i = load i32, ptr %32, align 4
  %33 = icmp sgt i32 %.val18.i, 0
  %34 = getelementptr i8, ptr %17, i64 8
  %.val15.i = load ptr, ptr %34, align 8
  br i1 %33, label %.lr.ph20.i, label %Pdr_ManCountFlops.exit

.lr.ph20.i:                                       ; preds = %Vec_IntStart.exit.i
  %35 = zext nneg i32 %.val18.i to i64
  br label %36

36:                                               ; preds = %.loopexit.i, %.lr.ph20.i
  %indvars.iv22.i = phi i64 [ 0, %.lr.ph20.i ], [ %indvars.iv.next23.i, %.loopexit.i ]
  %37 = getelementptr inbounds nuw ptr, ptr %.val15.i, i64 %indvars.iv22.i
  %38 = load ptr, ptr %37, align 8
  %39 = getelementptr inbounds nuw i8, ptr %38, i64 8
  %40 = load i32, ptr %39, align 8
  %41 = icmp eq i32 %40, -1
  br i1 %41, label %.loopexit.i, label %.preheader.i

.preheader.i:                                     ; preds = %36
  %42 = getelementptr inbounds nuw i8, ptr %38, i64 16
  %43 = load i32, ptr %42, align 8
  %44 = icmp sgt i32 %43, 0
  br i1 %44, label %.lr.ph.i6, label %.loopexit.i

.lr.ph.i6:                                        ; preds = %.preheader.i
  %45 = getelementptr inbounds nuw i8, ptr %38, i64 20
  br label %46

46:                                               ; preds = %46, %.lr.ph.i6
  %indvars.iv.i7 = phi i64 [ 0, %.lr.ph.i6 ], [ %indvars.iv.next.i8, %46 ]
  %47 = getelementptr inbounds nuw [0 x i32], ptr %45, i64 0, i64 %indvars.iv.i7
  %48 = load i32, ptr %47, align 4
  %49 = ashr i32 %48, 1
  %50 = sext i32 %49 to i64
  %51 = getelementptr inbounds i32, ptr %.val16.i, i64 %50
  %52 = load i32, ptr %51, align 4
  %53 = add nsw i32 %52, 1
  store i32 %53, ptr %51, align 4
  %indvars.iv.next.i8 = add nuw nsw i64 %indvars.iv.i7, 1
  %54 = load i32, ptr %42, align 8
  %55 = sext i32 %54 to i64
  %56 = icmp slt i64 %indvars.iv.next.i8, %55
  br i1 %56, label %46, label %.loopexit.i, !llvm.loop !10

.loopexit.i:                                      ; preds = %46, %.preheader.i, %36
  %indvars.iv.next23.i = add nuw nsw i64 %indvars.iv22.i, 1
  %exitcond.not = icmp eq i64 %indvars.iv.next23.i, %35
  br i1 %exitcond.not, label %Pdr_ManCountFlops.exit, label %36, !llvm.loop !11

Pdr_ManCountFlops.exit:                           ; preds = %.loopexit.i, %Vec_IntStart.exit.i
  %.not.i = icmp eq ptr %.val15.i, null
  br i1 %.not.i, label %Vec_PtrFree.exit, label %57

57:                                               ; preds = %Pdr_ManCountFlops.exit
  tail call void @free(ptr noundef nonnull %.val15.i) #18
  br label %Vec_PtrFree.exit

Vec_PtrFree.exit:                                 ; preds = %Pdr_ManCountFlops.exit, %57
  tail call void @free(ptr noundef nonnull %17) #18
  ret ptr %21
}